(lp0
(Vfat chinese kid
p1
VFat-Chinese-Kid
p2
tp3
a(VUncle Sam Says
p4
VUncle-Sam-Says
p5
tp6
a(VSocially Awesome Awkward Penguin
p7
VSocially-Awesome-Awkward-Penguin
p8
tp9
a(VRosie O' Donnell
p10
VRosie-O-Donnell
p11
tp12
a(Voverly manlyman
p13
VOverly-Manlyman
p14
tp15
a(VSkeptical African Child
p16
VSkeptical-African-Child
p17
tp18
a(Vcrying peter parker
p19
VCrying-Peter-Parker
p20
tp21
a(VThe Lazy College Senior
p22
VThe-Lazy-College-Senior
p23
tp24
a(VMusically Oblivious 8th Grader
p25
VMusically-Oblivious-8th-Grader
p26
tp27
a(Vstevie wonder
p28
VStevie-Wonder
p29
tp30
a(VRyan Gosling Hey 
p31
VRyan-Gosling-Hey
p32
tp33
a(VForever Alone
p34
VForever-Alone
p35
tp36
a(VDouble Facepalm
p37
VDouble-Facepalm
p38
tp39
a(VShrek Cat V1
p40
VShrek-Cat-V1
p41
tp42
a(VKanye West
p43
VKanye-West
p44
tp45
a(VFreddie Mercury
p46
VFreddie-Mercury
p47
tp48
a(Vjohn goodman
p49
VJohn-Goodman
p50
tp51
a(VTechnologically Impaired Duck
p52
VTechnologically-Impaired-Duck
p53
tp54
a(VWaiting For
p55
VWaiting-For
p56
tp57
a(VShut Up And Take My Money
p58
VShut-Up-And-Take-My-Money
p59
tp60
a(VCrying lady
p61
VCrying-Lady
p62
tp63
a(Vafrican kids dancing
p64
VAfrican-Kids-Dancing
p65
tp66
a(Vdr evil austin powers
p67
VDr-Evil-Austin-Powers
p68
tp69
a(VDos Equis Guy gives advice
p70
VDos-Equis-Guy-Gives-Advice
p71
tp72
a(VHigh Expectations Asian Father
p73
VHigh-Expectations-Asian-Father
p74
tp75
a(Vyou don't say meme
p76
VYou-DonT-Say-Meme
p77
tp78
a(VSay what again
p79
VSay-What-Again
p80
tp81
a(Vpablo escobar libreta
p82
VPablo-Escobar-Libreta
p83
tp84
a(Vspoderman
p85
VSpoderman
p86
tp87
a(VSuccess Kid
p88
VSuccess-Kid
p89
tp90
a(VZoolander for Ants
p91
VZoolander-For-Ants
p92
tp93
a(Vkill yourself guy
p94
VKill-Yourself-Guy
p95
tp96
a(VDwight Schrute
p97
VDwight-Schrute
p98
tp99
a(VDogeeeee
p100
VDogeeeee
p101
tp102
a(Vsurprise motherfucker
p103
VSurprise-Motherfucker
p104
tp105
a(VHal 9000
p106
VHal-9000
p107
tp108
a(VIts A Trap
p109
VIts-A-Trap
p110
tp111
a(VPoptropican
p112
VPoptropican
p113
tp114
a(Vgenius rage meme
p115
VGenius-Rage-Meme
p116
tp117
a(VOne does not simply - meme
p118
VOne-Does-Not-Simply-Meme
p119
tp120
a(VAll the things
p121
VAll-The-Things
p122
tp123
a(VInternet Grandma Surprise
p124
VInternet-Grandma-Surprise
p125
tp126
a(Vno this is patrick
p127
VNo-This-Is-Patrick
p128
tp129
a(Vrich cat 
p130
VRich-Cat
p131
tp132
a(Vpraise the lord cat
p133
VPraise-The-Lord-Cat
p134
tp135
a(Vjesus says
p136
VJesus-Says
p137
tp138
a(Vretarded kid with glasses
p139
VRetarded-Kid-With-Glasses
p140
tp141
a(Vgoku
p142
VGoku
p143
tp144
a(VPedobear Triste
p145
VPedobear-Triste
p146
tp147
a(Vsean connery ftw
p148
Vsean-connery-ftw
p149
tp150
a(VPulp Fiction
p151
VPulp-Fiction
p152
tp153
a(VAngry Old Man
p154
VAngry-Old-Man
p155
tp156
a(Vsay what one more time
p157
VSay-What-One-More-Time
p158
tp159
a(Vcalvin peeing
p160
VCalvin-Peeing
p161
tp162
a(VBarney Stinson
p163
VBarney-Stinson
p164
tp165
a(Vwhat if meme
p166
VWhat-If-Meme
p167
tp168
a(VLimes Guy
p169
VLimes-Guy
p170
tp171
a(VChill Out Lemur
p172
VChill-Out-Lemur
p173
tp174
a(VEvil Asian Baby
p175
VEvil-Asian-Baby
p176
tp177
a(VBaby Insanity Wolf
p178
VBaby-Insanity-Wolf
p179
tp180
a(VGangnam style psy
p181
VGangnam-Style-Psy
p182
tp183
a(VLaughing Professors
p184
VLaughing-Professors
p185
tp186
a(VNot Today Syrio Forel
p187
VNot-Today-Syrio-Forel
p188
tp189
a(VJay Wilson Diablo 3
p190
VJay-Wilson-Diablo-3
p191
tp192
a(VProfessor Farnsworth
p193
VProfessor-Farnsworth
p194
tp195
a(Vhipster Barista
p196
VHipster-Barista
p197
tp198
a(VGame of Thrones
p199
VGame-Of-Thrones
p200
tp201
a(VYao Ming
p202
VYao-Ming
p203
tp204
a(Vwow such doge1
p205
VWow-Such-Doge1
p206
tp207
a(VPepperidge Farm Remembers Meme
p208
VPepperidge-Farm-Remembers-Meme
p209
tp210
a(VGimli
p211
VGimli
p212
tp213
a(VHelen Lovejoy
p214
VHelen-Lovejoy
p215
tp216
a(VI don't always guy meme
p217
VI-DonT-Always-Guy-Meme
p218
tp219
a(VBuzz Lightyear Everywhere Meme
p220
VBuzz-Lightyear-Everywhere-Meme
p221
tp222
a(VRape Ewok
p223
VRape-Ewok
p224
tp225
a(Vthat would be great guy
p226
VThat-Would-Be-Great-Guy
p227
tp228
a(VDog Lawyer
p229
VDog-Lawyer
p230
tp231
a(Vwilly wonka
p232
VWilly-Wonka
p233
tp234
a(VFreedom Eagle 
p235
VFreedom-Eagle
p236
tp237
a(VBad luck Brian meme
p238
VBad-Luck-Brian-Meme
p239
tp240
a(VConfession Tiger
p241
VConfession-Tiger
p242
tp243
a(VWhat If I Told You Meme
p244
VWhat-If-I-Told-You-Meme
p245
tp246
a(VMilton Office Space
p247
VMilton-Office-Space
p248
tp249
a(VDisaster Girl
p250
VDisaster-Girl
p251
tp252
a(Vmr mackey
p253
VMr-Mackey
p254
tp255
a(Vmean girls
p256
VMean-Girls
p257
tp258
a(VGandalf
p259
VGandalf
p260
tp261
a(VUncle Sam Point
p262
VUncle-Sam-Point
p263
tp264
a(VMagnets How Do They Work
p265
VMagnets-How-Do-They-Work
p266
tp267
a(VAin't Nobody got time fo that
p268
VAinT-Nobody-Got-Time-Fo-That
p269
tp270
a(VAngry baby
p271
VAngry-Baby
p272
tp273
a(VSerious Cat
p274
VSerious-Cat
p275
tp276
a(VBuddy Christ
p277
VBuddy-Christ
p278
tp279
a(VWilly Wonka Literary Theory
p280
VWilly-Wonka-Literary-Theory
p281
tp282
a(VChef Excellence
p283
VChef-Excellence
p284
tp285
a(VJeremy Clarkson
p286
VJeremy-Clarkson
p287
tp288
a(VJesse Pinkman
p289
VJesse-Pinkman
p290
tp291
a(VCrying face
p292
VCrying-Face
p293
tp294
a(VOne does not simply fly into Ardor
p295
VOne-Does-Not-Simply-Fly-Into-Ardor
p296
tp297
a(VMR bean
p298
VMr-Bean
p299
tp300
a(Vjoker
p301
VJoker
p302
tp303
a(VThe Irrational Black Man
p304
VThe-Irrational-Black-Man
p305
tp306
a(VFuturama Fry
p307
VFuturama-Fry
p308
tp309
a(VBiology Major Parrot
p310
VBiology-Major-Parrot
p311
tp312
a(VActual Advice Mallard 1
p313
VActual-Advice-Mallard-1
p314
tp315
a(Vgiving oprah
p316
VGiving-Oprah
p317
tp318
a(VFat Asian Kid
p319
VFat-Asian-Kid
p320
tp321
a(VPatrick Stewart WTF
p322
VPatrick-Stewart-Wtf
p323
tp324
a(Vmr chow
p325
VMr-Chow
p326
tp327
a(VFsjal
p328
VFsjal
p329
tp330
a(V60s spiderman behind desk
p331
V60s-Spiderman-Behind-Desk
p332
tp333
a(VNot today arya
p334
VNot-Today-Arya
p335
tp336
a(VSad Frog
p337
VSad-Frog
p338
tp339
a(Vit'll be fun they say
p340
VItLl-Be-Fun-They-Say
p341
tp342
a(VSouth Park Ski Teacher
p343
VSouth-Park-Ski-Teacher
p344
tp345
a(VINBETWEENERS FRIEND
p346
VInbetweeners-Friend
p347
tp348
a(Vfirst world problems
p349
VFirst-World-Problems
p350
tp351
a(Vwat lady
p352
VWat-Lady
p353
tp354
a(Vcowbell
p355
VCowbell
p356
tp357
a(V300
p358
V300
p359
tp360
a(VLion King Shadowy Place
p361
VLion-King-Shadowy-Place
p362
tp363
a(VAlien guy
p364
VAlien-Guy
p365
tp366
a(VDo you think this is a motherfucking game?
p367
VDo-You-Think-This-Is-A-Motherfucking-Game
p368
tp369
a(Vand im just sitting here masterbating
p370
VAnd-Im-Just-Sitting-Here-Masterbating
p371
tp372
a(VTrolololololll
p373
VTrolololololll
p374
tp375
a(VImma Let you finish kanye west
p376
VImma-Let-You-Finish-Kanye-West
p377
tp378
a(VCarlton Banks
p379
VCarlton-Banks
p380
tp381
a(VAngry Guido 
p382
VAngry-Guido
p383
tp384
a(Vso doge
p385
VSo-Doge
p386
tp387
a(VFirst Day on the internet kid
p388
VFirst-Day-On-The-Internet-Kid
p389
tp390
a(VBrace Yourself Meme
p391
VBrace-Yourself-Meme
p392
tp393
a(Vone-does-not-simply-a
p394
VOne-Does-Not-Simply-A
p395
tp396
a(VComox Valley Deer
p397
VComox-Valley-Deer
p398
tp399
a(VBad time ski instructor 1
p400
VBad-Time-Ski-Instructor-1
p401
tp402
a(VGood Day Ice Cube
p403
VGood-Day-Ice-Cube
p404
tp405
a(VNever Have I Been So Wrong
p406
VNever-Have-I-Been-So-Wrong
p407
tp408
a(VSudden Realization Ralph
p409
VSudden-Realization-Ralph
p410
tp411
a(VPawn Stars
p412
VPawn-Stars
p413
tp414
a(VSo Then I Said...
p415
VSo-Then-I-Said
p416
tp417
a(VWinston Churchill
p418
VWinston-Churchill
p419
tp420
a(Vsouth park aand it's gone
p421
VSouth-Park-Aand-ItS-Gone
p422
tp423
a(VAdmiral Ackbar
p424
VAdmiral-Ackbar
p425
tp426
a(VBirthday dog
p427
VBirthday-Dog
p428
tp429
a(VUncle Dolan
p430
VUncle-Dolan
p431
tp432
a(VSexual Picard
p433
VSexual-Picard
p434
tp435
a(VJay Z problem
p436
VJay-Z-Problem
p437
tp438
a(VBaby on Phone
p439
VBaby-On-Phone
p440
tp441
a(VFreddy Mercury
p442
VFreddy-Mercury
p443
tp444
a(VToy Story Everywhere
p445
VToy-Story-Everywhere
p446
tp447
a(VStupid Slut
p448
VStupid-Slut
p449
tp450
a(VIraqi Information Minister
p451
VIraqi-Information-Minister
p452
tp453
a(VBad RPer Polar Bear
p454
VBad-Rper-Polar-Bear
p455
tp456
a(VVader_advice
p457
VVader-Advice
p458
tp459
a(VOprah Gives Away Stuff
p460
VOprah-Gives-Away-Stuff
p461
tp462
a(VStill Waiting
p463
VStill-Waiting
p464
tp465
a(VDoug Base
p466
VDoug-Base
p467
tp468
a(Vsad panda
p469
VSad-Panda
p470
tp471
a(VMcKayla Maroney Not Impressed
p472
VMckayla-Maroney-Not-Impressed
p473
tp474
a(VObi Wan Kenobi 
p475
VObi-Wan-Kenobi
p476
tp477
a(VYoda
p478
VYoda
p479
tp480
a(VHorrifying House Guest
p481
VHorrifying-House-Guest
p482
tp483
a(VI SMILE
p484
VI-Smile
p485
tp486
a(VGrumpy Cat 2
p487
VGrumpy-Cat-2
p488
tp489
a(VBraveheart
p490
VBraveheart
p491
tp492
a(VCsi
p493
VCsi
p494
tp495
a(Vyou mean to tell me black kid
p496
VYou-Mean-To-Tell-Me-Black-Kid
p497
tp498
a(VI too like to live dangerously
p499
VI-Too-Like-To-Live-Dangerously
p500
tp501
a(VBert
p502
VBert
p503
tp504
a(Vstar trek wtf
p505
VStar-Trek-Wtf
p506
tp507
a(VSmokey the Bear
p508
VSmokey-The-Bear
p509
tp510
a(VBabylonin lammas
p511
VBabylonin-Lammas
p512
tp513
a(VWhyyy???
p514
VWhyyy
p515
tp516
a(VTony Horton
p517
VTony-Horton
p518
tp519
a(VMy Precious Gollum
p520
VMy-Precious-Gollum
p521
tp522
a(VBrace Yourselves.  John is turning 21.
p523
VBrace-Yourselves-John-Is-Turning-21
p524
tp525
a(VYo Dawg
p526
VYo-Dawg
p527
tp528
a(VReal Doge
p529
VReal-Doge
p530
tp531
a(VGood News Everyone
p532
VGood-News-Everyone
p533
tp534
a(VInsanity Wolf
p535
VInsanity-Wolf
p536
tp537
a(VKermit the frog
p538
VKermit-the-frog
p539
tp540
a(Vdolan meme
p541
VDolan-Meme
p542
tp543
a(VSkeptical 3rd World Kid
p544
VSkeptical-3rd-World-Kid
p545
tp546
a(V1889 [10] guy
p547
V1889-10-Guy
p548
tp549
a(VMr.Bean - If you know what I mean
p550
VMrBean-If-You-Know-What-I-Mean
p551
tp552
a(VNike swoosh
p553
VNike-Swoosh
p554
tp555
a(VKhan
p556
VKhan
p557
tp558
a(VSo You're Telling me
p559
VSo-YouRe-Telling-Me
p560
tp561
a(VKeep Calm
p562
VKeep-Calm
p563
tp564
a(VAdvice Raylan Givens
p565
VAdvice-Raylan-Givens
p566
tp567
a(VTrollface
p568
VTrollface
p569
tp570
a(VUnicorn Boy
p571
VUnicorn-Boy
p572
tp573
a(Vskyrim stan
p574
VSkyrim-Stan
p575
tp576
a(VAdvice Yoda
p577
VAdvice-Yoda
p578
tp579
a(Vpan andrzej
p580
VPan-Andrzej
p581
tp582
a(VI'll have you know Spongebob
p583
VILl-Have-You-Know-Spongebob
p584
tp585
a(Vwe got a badass over here
p586
VWe-Got-A-Badass-Over-Here
p587
tp588
a(VHomer Simpson Drooling
p589
VHomer-Simpson-Drooling
p590
tp591
a(VToo high
p592
VToo-High
p593
tp594
a(VThe Most Interesting Man In The World
p595
VThe-Most-Interesting-Man-In-The-World
p596
tp597
a(VPsst spiderman
p598
VPsst-Spiderman
p599
tp600
a(VFeel Like A Sir
p601
VFeel-Like-A-Sir
p602
tp603
a(Vspongebob rainbow
p604
VSpongebob-Rainbow
p605
tp606
a(VHell Yeah Jesus
p607
VHell-Yeah-Jesus
p608
tp609
a(Vdrew carey whose line is it anyway
p610
VDrew-Carey-Whose-Line-Is-It-Anyway
p611
tp612
a(VPushing Patrick
p613
VPushing-Patrick
p614
tp615
a(VMy Nigga Denzel
p616
VMy-Nigga-Denzel
p617
tp618
a(VKim Jong Un clapping
p619
VKim-Jong-Un-Clapping
p620
tp621
a(VLionel Richie
p622
VLionel-Richie
p623
tp624
a(Vmeme Brace yourself
p625
VMeme-Brace-Yourself
p626
tp627
a(VJesus Christ
p628
VJesus-Christ
p629
tp630
a(VDr. Evil Air Quotes
p631
VDr-Evil-Air-Quotes
p632
tp633
a(VProYodaAdvice
p634
VProyodaadvice
p635
tp636
a(VBubbles Trailer Park Boy
p637
VBubbles-Trailer-Park-Boy
p638
tp639
a(VStatler_and_Waldorf
p640
VStatler-And-Waldorf
p641
tp642
a(VSad Trooper
p643
VSad-Trooper
p644
tp645
a(VHistory guy
p646
VHistory-Guy
p647
tp648
a(VBane Permission to Die
p649
VBane-Permission-To-Die
p650
tp651
a(VSpiderman Approves
p652
VSpiderman-Approves
p653
tp654
a(VHipster Cheetah
p655
VHipster-Cheetah
p656
tp657
a(Vgood advice duck
p658
VGood-Advice-Duck
p659
tp660
a(VScumbag Steve
p661
VScumbag-Steve
p662
tp663
a(VTimmy turner's dad IF I HAD ONE!
p664
VTimmy-TurnerS-Dad-If-I-Had-One
p665
tp666
a(VHigh 10 guy
p667
VHigh-10-Guy
p668
tp669
a(VAh, Yes, Reapers
p670
VAh-Yes-Reapers
p671
tp672
a(Vbuzz lightyear meme
p673
VBuzz-Lightyear-Meme
p674
tp675
a(VToo damn high
p676
VToo-Damn-High
p677
tp678
a(VDikembe Mutombo
p679
VDikembe-Mutombo
p680
tp681
a(VGodfather Baby
p682
VGodfather-Baby
p683
tp684
a(VUnpopular Opinion Puffin
p685
VUnpopular-Opinion-Puffin
p686
tp687
a(Vtaken meme
p688
VTaken-Meme
p689
tp690
a(VWoody & Buzz... Everywhere
p691
VWoody-Buzz-Everywhere
p692
tp693
a(VXibithappy
p694
VXibithappy
p695
tp696
a(VCorrection Guy
p697
VCorrection-Guy
p698
tp699
a(VPsycho Stalker Girlfriend
p700
VPsycho-Stalker-Girlfriend
p701
tp702
a(VSocially Awkward Penguin
p703
VSocially-Awkward-Penguin
p704
tp705
a(VRainbow Dash
p706
VRainbow-Dash
p707
tp708
a(VTroll Asian
p709
VTroll-Asian
p710
tp711
a(Vryan gosling hey girl
p712
VRyan-Gosling-Hey-Girl
p713
tp714
a(VLawn Chair Blown Over
p715
VLawn-Chair-Blown-Over
p716
tp717
a(Vgollum
p718
VGollum
p719
tp720
a(VPUTIN
p721
VPutin
p722
tp723
a(Vwent full retard
p724
VWent-Full-Retard
p725
tp726
a(VScumbag George R. R. Martin
p727
VScumbag-George-R-R-Martin
p728
tp729
a(VBill Lumbergh
p730
VBill-Lumbergh
p731
tp732
a(Vbreaking bad
p733
VBreaking-Bad
p734
tp735
a(VBlack kid coloring
p736
VBlack-Kid-Coloring
p737
tp738
a(VIf i had one
p739
VIf-I-Had-One
p740
tp741
a(VIn Soviet Russia
p742
VIn-Soviet-Russia
p743
tp744
a(VJaqen H'ghar Meme
p745
VJaqen-HGhar-Meme
p746
tp747
a(VBig Lebowski
p748
VBig-Lebowski
p749
tp750
a(VCaptain  Obvious South Park
p751
VCaptain-Obvious-South-Park
p752
tp753
a(VJack Nicholson - You can't handle the truth!
p754
VJack-Nicholson-You-CanT-Handle-The-Truth
p755
tp756
a(VTroll Face in RUSSIA!
p757
VTroll-Face-In-Russia
p758
tp759
a(VFlip table meme
p760
VFlip-Table-Meme
p761
tp762
a(VMadagascar Penguin
p763
VMadagascar-Penguin
p764
tp765
a(VKirk screaming Khan
p766
VKirk-Screaming-Khan
p767
tp768
a(Vdrew carey
p769
VDrew-Carey
p770
tp771
a(Vpatrick star
p772
VPatrick-Star
p773
tp774
a(VAdam Levine
p775
VAdam-Levine
p776
tp777
a(Vthe amount of is too damn high
p778
VThe-Amount-Of-Is-Too-Damn-High
p779
tp780
a(Vhypocritical glee fandom
p781
VHypocritical-Glee-Fandom
p782
tp783
a(Vtui ad
p784
VTui-Ad
p785
tp786
a(VYou keep using that word, I don't think it means what you think it means
p787
VYou-Keep-Using-That-Word-I-DonT-Think-It-Means-What-You-Think-It-Means
p788
tp789
a(Vx all the y
p790
VX-All-The-Y
p791
tp792
a(VBrace yourself
p793
VBrace-Yourself
p794
tp795
a(VFalse guy
p796
VFalse-Guy
p797
tp798
a(VFeminist Cunt
p799
VFeminist-Cunt
p800
tp801
a(Vdave le minion
p802
VDave-Le-Minion
p803
tp804
a(VBack In My Day
p805
VBack-In-My-Day
p806
tp807
a(VSnakes on a plane Samuel L Jackson
p808
VSnakes-On-A-Plane-Samuel-L-Jackson
p809
tp810
a(Varagorn one does not simply
p811
VAragorn-One-Does-Not-Simply
p812
tp813
a(VChuck Norris Meme
p814
VChuck-Norris-Meme
p815
tp816
a(V:badluckbrian:
p817
VBadluckbrian
p818
tp819
a(VHungry Kim Jong Un
p820
VHungry-Kim-Jong-Un
p821
tp822
a(VDisapproving Batman
p823
VDisapproving-Batman
p824
tp825
a(Vemperor palpatine good good
p826
VEmperor-Palpatine-Good-Good
p827
tp828
a(Vnewspaper cat realization
p829
VNewspaper-Cat-Realization
p830
tp831
a(ViHate
p832
VIhate
p833
tp834
a(Vmad dog biar greget
p835
VMad-Dog-Biar-Greget
p836
tp837
a(VComputer kid
p838
VComputer-Kid
p839
tp840
a(VToy story
p841
VToy-Story
p842
tp843
a(VYer A Wizard Harry Hagrid
p844
VYer-A-Wizard-Harry-Hagrid
p845
tp846
a(VCancer Spiderman
p847
VCancer-Spiderman
p848
tp849
a(Vi know kung fu
p850
VI-Know-Kung-Fu
p851
tp852
a(VBlackjack and hookers bender
p853
VBlackjack-And-Hookers-Bender
p854
tp855
a(VAngry Walter With Gun
p856
VAngry-Walter-With-Gun
p857
tp858
a(VKeep Calm 2
p859
VKeep-Calm-2
p860
tp861
a(VTough Spongebob
p862
VTough-Spongebob
p863
tp864
a(Vskeptical black kid
p865
VSkeptical-Black-Kid
p866
tp867
a(VThird World Success
p868
VThird-World-Success
p869
tp870
a(VAngry Arnold
p871
VAngry-Arnold
p872
tp873
a(Vtrying to make fetch happen 
p874
VTrying-To-Make-Fetch-Happen
p875
tp876
a(Vsaw jigsaw meme
p877
VSaw-Jigsaw-Meme
p878
tp879
a(VAnchorman Birthday
p880
VAnchorman-Birthday
p881
tp882
a(Vobama laughing 
p883
VObama-Laughing
p884
tp885
a(VScience guy
p886
VScience-Guy
p887
tp888
a(Vi see dead people
p889
VI-See-Dead-People
p890
tp891
a(VCase Closed Judge Judy
p892
VCase-Closed-Judge-Judy
p893
tp894
a(VSuper Cougar
p895
VSuper-Cougar
p896
tp897
a(VKhaaan
p898
VKhaaan
p899
tp900
a(VStoner Stanley
p901
VStoner-Stanley
p902
tp903
a(VBane
p904
VBane
p905
tp906
a(VSkeptical Baby Whaa?
p907
VSkeptical-Baby-Whaa
p908
tp909
a(VDos Equis Man
p910
VDos-Equis-Man
p911
tp912
a(VAnonymous, Anonymous Everywhere
p913
VAnonymous-Anonymous-Everywhere
p914
tp915
a(VMorgan Freeman
p916
VMorgan-Freeman
p917
tp918
a(Vsurprised koala
p919
VSurprised-Koala
p920
tp921
a(VYes, this is dog!
p922
VYes-This-Is-Dog
p923
tp924
a(Vhippie girl
p925
VHippie-Girl
p926
tp927
a(VNerd
p928
VNerd
p929
tp930
a(Vuncle sam i want you
p931
VUncle-Sam-I-Want-You
p932
tp933
a(VAngry Samuel L Jackson
p934
VAngry-Samuel-L-Jackson
p935
tp936
a(VWilly Wonka Creepy
p937
VWilly-Wonka-Creepy
p938
tp939
a(Vjames bond
p940
VJames-Bond
p941
tp942
a(VNapoleon Dynamite
p943
VNapoleon-Dynamite
p944
tp945
a(VPraying Otter
p946
VPraying-Otter
p947
tp948
a(VBane Meme
p949
VBane-Meme
p950
tp951
a(VNot Bad Obama
p952
VNot-Bad-Obama
p953
tp954
a(Vwillywonka
p955
VWillywonka
p956
tp957
a(VPower Ranger meme
p958
VPower-Ranger-Meme
p959
tp960
a(VKevin Hart Face
p961
VKevin-Hart-Face
p962
tp963
a(VGordo Nerd
p964
VGordo-Nerd
p965
tp966
a(VAngry School Boy
p967
VAngry-School-Boy
p968
tp969
a(Vobama beer
p970
VObama-Beer
p971
tp972
a(VSkeptical african kid 
p973
VSkeptical-African-Kid
p974
tp975
a(VAll your base are belong to us
p976
VAll-Your-Base-Are-Belong-To-Us
p977
tp978
a(VTHIS IS PATRICK
p979
VThis-Is-Patrick
p980
tp981
a(VJealous Girl
p982
VJealous-Girl
p983
tp984
a(VPatrick:Is mayonnaise an instrument?
p985
VPatrickIs-Mayonnaise-An-Instrument
p986
tp987
a(VWilliam Shakespeare
p988
VWilliam-Shakespeare
p989
tp990
a(VBEARD
p991
VBeard
p992
tp993
a(VMr T
p994
VMr-T
p995
tp996
a(VChuck Norris 
p997
VChuck-Norris
p998
tp999
a(VJoseph Ducreux
p1000
VJoseph-Ducreux
p1001
tp1002
a(VRetard girl
p1003
VRetard-Girl
p1004
tp1005
a(VParty Skunk
p1006
VParty-Skunk
p1007
tp1008
a(V10guy
p1009
V10guy
p1010
tp1011
a(VDesk Flip Rage Guy
p1012
VDesk-Flip-Rage-Guy
p1013
tp1014
a(VCall Center Craig 
p1015
VCall-Center-Craig
p1016
tp1017
a(VCaptain Picard So Much Win!
p1018
VCaptain-Picard-So-Much-Win
p1019
tp1020
a(VArcher
p1021
VArcher
p1022
tp1023
a(VX ALL THE THINGS
p1024
VX-All-The-Things
p1025
tp1026
a(Vmastercard
p1027
VMastercard
p1028
tp1029
a(VDebbie Downer
p1030
VDebbie-Downer
p1031
tp1032
a(VVanilla Ice
p1033
VVanilla-Ice
p1034
tp1035
a(VDwayne 'The Rock' Johnson
p1036
VDwayne-The-Rock-Johnson
p1037
tp1038
a(VSpiderman Desk
p1039
VSpiderman-Desk
p1040
tp1041
a(VJabba The Hutt
p1042
VJabba-The-Hutt
p1043
tp1044
a(VBrace Yourself Winter is Coming.
p1045
VBrace-Yourself-Winter-Is-Coming
p1046
tp1047
a(VBill Lumbergh Office Space
p1048
VBill-Lumbergh-Office-Space
p1049
tp1050
a(VThat would be great
p1051
VThat-Would-Be-Great
p1052
tp1053
a(VSimba
p1054
VSimba
p1055
tp1056
a(VWhy can't I hold all these limes
p1057
VWhy-CanT-I-Hold-All-These-Limes
p1058
tp1059
a(VFat Bastard
p1060
VFat-Bastard
p1061
tp1062
a(VDr Evil meme
p1063
VDr-Evil-Meme
p1064
tp1065
a(VSpongebob How Tough Am I?
p1066
VSpongebob-How-Tough-Am-I
p1067
tp1068
a(VMorgan Freeman God
p1069
VMorgan-Freeman-God
p1070
tp1071
a(VLiberal Douche Garofalo
p1072
VLiberal-Douche-Garofalo
p1073
tp1074
a(VYou're a Wizard Harry
p1075
VYouRe-A-Wizard-Harry
p1076
tp1077
a(VI dont want to live on this planet
p1078
VI-Dont-Want-To-Live-On-This-Planet
p1079
tp1080
a(Vpeter griffin
p1081
VPeter-Griffin
p1082
tp1083
a(VAnnoying Facebook Girl
p1084
VAnnoying-Facebook-Girl
p1085
tp1086
a(VSouthPark Bad Time meme
p1087
VSouthpark-Bad-Time-Meme
p1088
tp1089
a(VHitler
p1090
VHitler
p1091
tp1092
a(VBear Grylls
p1093
VBear-Grylls
p1094
tp1095
a(VOh you guy
p1096
VOh-You-Guy
p1097
tp1098
a(VI have no idea what I'm doing dog
p1099
VI-Have-No-Idea-What-IM-Doing-Dog
p1100
tp1101
a(VDRAKE
p1102
VDrake
p1103
tp1104
a(VBatman Slappp
p1105
VBatman-Slappp
p1106
tp1107
a(VMaker
p1108
VMaker
p1109
tp1110
a(Vinsanity crow
p1111
VInsanity-Crow
p1112
tp1113
a(VPiisamirotta
p1114
VPiisamirotta
p1115
tp1116
a(VWhy not both?
p1117
VWhy-Not-Both
p1118
tp1119
a(Vpleaseguy 
p1120
VPleaseguy
p1121
tp1122
a(VAncient Aliens
p1123
VAncient-Aliens
p1124
tp1125
a(VYeah If You Could Just
p1126
VYeah-If-You-Could-Just
p1127
tp1128
a(VReally highguy
p1129
VReally-Highguy
p1130
tp1131
a(VI find your lack of faith disturbing
p1132
VI-Find-Your-Lack-Of-Faith-Disturbing
p1133
tp1134
a(VPush it Somewhere Else Patrick
p1135
VPush-it-Somewhere-Else-Patrick
p1136
tp1137
a(VSassy Black Woman
p1138
VSassy-Black-Woman
p1139
tp1140
a(VFrodo 
p1141
VFrodo
p1142
tp1143
a(VErmahgerd
p1144
VErmahgerd
p1145
tp1146
a(VStoner Dog
p1147
VStoner-Dog
p1148
tp1149
a(VDinkleberg
p1150
VDinkleberg
p1151
tp1152
a(VCeiling cat
p1153
VCeiling-Cat
p1154
tp1155
a(VStar Wars Emperor
p1156
VStar-Wars-Emperor
p1157
tp1158
a(Vjoker mind loss
p1159
VJoker-Mind-Loss
p1160
tp1161
a(VMeme Creator
p1162
VMeme-Creator
p1163
tp1164
a(Vcharlie sheen
p1165
VCharlie-Sheen
p1166
tp1167
a(VTom Cruise laugh
p1168
VTom-Cruise-Laugh
p1169
tp1170
a(VWhat you talkin' bout Willis 
p1171
VWhat-You-Talkin-Bout-Willis
p1172
tp1173
a(VYgritte
p1174
VYgritte
p1175
tp1176
a(Vjust waiting for a mate
p1177
VJust-Waiting-For-A-Mate
p1178
tp1179
a(VOnly then you have my permission to die
p1180
VOnly-Then-You-Have-My-Permission-To-Die
p1181
tp1182
a(VZoidberg
p1183
VZoidberg
p1184
tp1185
a(VRaven Symone
p1186
VRaven-Symone
p1187
tp1188
a(VBuddy the Elf
p1189
VBuddy-The-Elf
p1190
tp1191
a(VBack to the future
p1192
VBack-to-the-future
p1193
tp1194
a(VGrinds My Gears Peter Griffin
p1195
VGrinds-My-Gears-Peter-Griffin
p1196
tp1197
a(Vapa cuma gue disini
p1198
VApa-Cuma-Gue-Disini
p1199
tp1200
a(VSpartan300
p1201
VSpartan300
p1202
tp1203
a(VClassics Crocodile
p1204
VClassics-Crocodile
p1205
tp1206
a(VErmagherd Girl
p1207
VErmagherd-Girl
p1208
tp1209
a(VMuscles Jesus
p1210
VMuscles-Jesus
p1211
tp1212
a(VYodanigger
p1213
VYodanigger
p1214
tp1215
a(VKoala can't believe it
p1216
VKoala-CanT-Believe-It
p1217
tp1218
a(VWaiting Skeleton
p1219
VWaiting-Skeleton
p1220
tp1221
a(Vfist pump baby
p1222
VFist-Pump-Baby
p1223
tp1224
a(VRyan Gosling Hey Girl 3
p1225
VRyan-Gosling-Hey-Girl-3
p1226
tp1227
a(VThese are not the droids you were looking for
p1228
VThese-Are-Not-The-Droids-You-Were-Looking-For
p1229
tp1230
a(VOverly Attached Girlfriend 2
p1231
VOverly-Attached-Girlfriend-2
p1232
tp1233
a(VDonald Trump
p1234
VDonald-Trump
p1235
tp1236
a(Vam i the only one around here
p1237
VAm-I-The-Only-One-Around-Here
p1238
tp1239
a(VVasyaCrab
p1240
VVasyacrab
p1241
tp1242
a(VBad Luck Brian M
p1243
VBad-Luck-Brian-M
p1244
tp1245
a(VGeico Caveman
p1246
VGeico-Caveman
p1247
tp1248
a(VChris Traeger
p1249
VChris-Traeger
p1250
tp1251
a(VEvil Plan Baby
p1252
VEvil-Plan-Baby
p1253
tp1254
a(VAbsentminded Goldfish
p1255
VAbsentminded-Goldfish
p1256
tp1257
a(Vcrying girl sad
p1258
VCrying-Girl-Sad
p1259
tp1260
a(VSith Lord
p1261
VSith-Lord
p1262
tp1263
a(VPrepare yourself
p1264
VPrepare-Yourself
p1265
tp1266
a(VFirst world Problems II
p1267
VFirst-World-Problems-Ii
p1268
tp1269
a(VChemistry Cat
p1270
VChemistry-Cat
p1271
tp1272
a(VYou went full retard man, never go full retard
p1273
VYou-Went-Full-Retard-Man-Never-Go-Full-Retard
p1274
tp1275
a(Vhypnotoad
p1276
VHypnotoad
p1277
tp1278
a(VCrazy Cat Man
p1279
VCrazy-Cat-Man
p1280
tp1281
a(VBaby Headphones
p1282
VBaby-Headphones
p1283
tp1284
a(VRon Burgundy
p1285
VRon-Burgundy
p1286
tp1287
a(Vyao ming hd
p1288
VYao-Ming-Hd
p1289
tp1290
a(VBaghdad Bob
p1291
VBaghdad-Bob
p1292
tp1293
a(Vi'm watching you meme
p1294
VIM-Watching-You-Meme
p1295
tp1296
a(VSad Face Guy
p1297
VSad-Face-Guy
p1298
tp1299
a(VThe Rape Sloth
p1300
VThe-Rape-Sloth
p1301
tp1302
a(VGrumpy Cat Smile
p1303
VGrumpy-Cat-Smile
p1304
tp1305
a(VNothing To Do Here (Draw)
p1306
VNothing-To-Do-Here-Draw
p1307
tp1308
a(Vollie williams
p1309
VOllie-Williams
p1310
tp1311
a(Vyou're gonna have a bad time guy
p1312
VYouRe-Gonna-Have-A-Bad-Time-Guy
p1313
tp1314
a(VSpongebob
p1315
VSpongebob
p1316
tp1317
a(VY U No
p1318
VY-U-No
p1319
tp1320
a(VBuzz lightyear meme fixd
p1321
VBuzz-Lightyear-Meme-Fixd
p1322
tp1323
a(VSee? Nobody Cares
p1324
VSee-Nobody-Cares
p1325
tp1326
a(VI can count to potato
p1327
VI-Can-Count-To-Potato
p1328
tp1329
a(VChanning Tatum
p1330
VChanning-Tatum
p1331
tp1332
a(VReally Stoned Guy
p1333
VReally-Stoned-Guy
p1334
tp1335
a(VAlbert Einstein
p1336
VAlbert-Einstein
p1337
tp1338
a(VThe Godfather
p1339
VThe-Godfather
p1340
tp1341
a(Vfreud
p1342
Vfreud
p1343
tp1344
a(Vgordo granudo
p1345
VGordo-Granudo
p1346
tp1347
a(VFacepalm Jesus
p1348
VFacepalm-Jesus
p1349
tp1350
a(VWinter is Coming
p1351
VWinter-Is-Coming
p1352
tp1353
a(VInigo Montoya
p1354
VInigo-Montoya
p1355
tp1356
a(VI Dont Always
p1357
VI-Dont-Always
p1358
tp1359
a(Vblack background
p1360
VBlack-Background
p1361
tp1362
a(VDafuq Severus Snape
p1363
VDafuq-Severus-Snape
p1364
tp1365
a(VThis is where I'd put my X... IF I HAD ONE
p1366
VThis-Is-Where-ID-Put-My-X-If-I-Had-One
p1367
tp1368
a(VMy Little Pony
p1369
VMy-Little-Pony
p1370
tp1371
a(Vdavid hasselhoff
p1372
VDavid-Hasselhoff
p1373
tp1374
a(VRich Men Laughing
p1375
VRich-Men-Laughing
p1376
tp1377
a(VSpongebob Face
p1378
VSpongebob-Face
p1379
tp1380
a(VShirtless Ryan Gosling
p1381
VShirtless-Ryan-Gosling
p1382
tp1383
a(VBear Grylls Loneliness
p1384
VBear-Grylls-Loneliness
p1385
tp1386
a(VAnxiety Cat
p1387
VAnxiety-Cat
p1388
tp1389
a(VYou Don't Say Nicholas Cage
p1390
VYou-DonT-Say-Nicholas-Cage
p1391
tp1392
a(VRetard Horse
p1393
VRetard-Horse
p1394
tp1395
a(VI HAVE A DREAM
p1396
VI-Have-A-Dream
p1397
tp1398
a(VStay classy
p1399
VStay-Classy
p1400
tp1401
a(VTypical guinea pig
p1402
VTypical-Guinea-Pig
p1403
tp1404
a(VDespicable Me Minion
p1405
VDespicable-Me-Minion
p1406
tp1407
a(VYe Old Englishman
p1408
VYe-Old-Englishman
p1409
tp1410
a(VJEDI MINDTRICK
p1411
VJedi-Mindtrick
p1412
tp1413
a(VDory
p1414
VDory
p1415
tp1416
a(VSkeleton computer
p1417
VSkeleton-Computer
p1418
tp1419
a(VSadcat
p1420
VSadcat
p1421
tp1422
a(VVictory Baby
p1423
VVictory-Baby
p1424
tp1425
a(VLoses Their Minds
p1426
VLoses-Their-Minds
p1427
tp1428
a(VCasos de Familia
p1429
VCasos-De-Familia
p1430
tp1431
a(VYeah that'd be great...
p1432
VYeah-ThatD-Be-Great
p1433
tp1434
a(VDawson's Creek
p1435
VDawsonS-Creek
p1436
tp1437
a(VFoul Bachelor Frog
p1438
VFoul-Bachelor-Frog
p1439
tp1440
a(VComic Book Guy Worst Ever
p1441
VComic-Book-Guy-Worst-Ever
p1442
tp1443
a(VI Want You
p1444
VI-Want-You
p1445
tp1446
a(Vunhelpful teacher
p1447
VUnhelpful-Teacher
p1448
tp1449
a(VWaiting For Op
p1450
VWaiting-For-Op
p1451
tp1452
a(VOld Man
p1453
VOld-Man
p1454
tp1455
a(VClippy
p1456
VClippy
p1457
tp1458
a(VNed Stark
p1459
VNed-Stark
p1460
tp1461
a(Vdr. evil quotation marks
p1462
VDr-Evil-Quotation-Marks
p1463
tp1464
a(VSweet brown
p1465
VSweet-Brown
p1466
tp1467
a(VGandalf You Shall Not Pass
p1468
VGandalf-You-Shall-Not-Pass
p1469
tp1470
a(VUncle Sam
p1471
VUncle-Sam
p1472
tp1473
a(Vyou have no power here
p1474
VYou-Have-No-Power-Here
p1475
tp1476
a(VTypical Bender
p1477
VTypical-Bender
p1478
tp1479
a(Vfinding neverland full
p1480
VFinding-Neverland-Full
p1481
tp1482
a(VOver 9000
p1483
VOver-9000
p1484
tp1485
a(VBaby fist
p1486
VBaby-Fist
p1487
tp1488
a(VObamawtf
p1489
VObamawtf
p1490
tp1491
a(Vsmiley derp
p1492
VSmiley-Derp
p1493
tp1494
a(VOh You Dog
p1495
VOh-You-Dog
p1496
tp1497
a(Vbuddy jesus
p1498
VBuddy-Jesus
p1499
tp1500
a(VWhy not zoidberg?
p1501
VWhy-Not-Zoidberg
p1502
tp1503
a(VPicard Wtf
p1504
VPicard-Wtf
p1505
tp1506
a(VFinnishProblems
p1507
VFinnishproblems
p1508
tp1509
a(VDarth Vader
p1510
VDarth-Vader
p1511
tp1512
a(VThere will come a day but it is not this day
p1513
VThere-Will-Come-A-Day-But-It-Is-Not-This-Day
p1514
tp1515
a(VPhilosoraptor
p1516
VPhilosoraptor
p1517
tp1518
a(VGood Guy Greg
p1519
VGood-Guy-Greg
p1520
tp1521
a(VNyashka
p1522
VNyashka
p1523
tp1524
a(Vsparta
p1525
VSparta
p1526
tp1527
a(VButthurt Dweller
p1528
VButthurt-Dweller
p1529
tp1530
a(Vbatman slap robin
p1531
VBatman-Slap-Robin
p1532
tp1533
a(VThats a paddlin
p1534
VThats-a-paddlin
p1535
tp1536
a(VR. Lee Ermey
p1537
VR-Lee-Ermey
p1538
tp1539
a(VTseverywhere
p1540
VTseverywhere
p1541
tp1542
a(Vneil degrasse tyson reaction
p1543
VNeil-Degrasse-Tyson-Reaction
p1544
tp1545
a(VGangnam Style
p1546
VGangnam-Style
p1547
tp1548
a(VConfused Jackie Chan
p1549
VConfused-Jackie-Chan
p1550
tp1551
a(Vsixth sense
p1552
VSixth-Sense
p1553
tp1554
a(VMaury Lie Detector
p1555
VMaury-Lie-Detector
p1556
tp1557
a(VHa Ha Guy
p1558
VHa-Ha-Guy
p1559
tp1560
a(VAlmost Politically Correct Redneck
p1561
VAlmost-Politically-Correct-Redneck
p1562
tp1563
a(VArt Student Owl
p1564
VArt-Student-Owl
p1565
tp1566
a(Vsoup nazi
p1567
VSoup-Nazi
p1568
tp1569
a(VKrugman
p1570
VKrugman
p1571
tp1572
a(VParanoid Parrot
p1573
VParanoid-Parrot
p1574
tp1575
a(VOverly Obsessed Girlfriend
p1576
VOverly-Obsessed-Girlfriend
p1577
tp1578
a(VBusiness Cat
p1579
VBusiness-Cat
p1580
tp1581
a(VPicardfacepalm
p1582
VPicardfacepalm
p1583
tp1584
a(VThe Count
p1585
VThe-Count
p1586
tp1587
a(Vso i guess you could say things are getting pretty serious
p1588
VSo-I-Guess-You-Could-Say-Things-Are-Getting-Pretty-Serious
p1589
tp1590
a(Vwill ferrell
p1591
VWill-Ferrell
p1592
tp1593
a(VWhat do we say to the god of death ? 
p1594
VWhat-Do-We-Say-To-The-God-Of-Death-
p1595
tp1596
a(VScumbag America2
p1597
VScumbag-America2
p1598
tp1599
a(VCaptain Picard
p1600
VCaptain-Picard
p1601
tp1602
a(VConsequences Toy Story
p1603
VConsequences-Toy-Story
p1604
tp1605
a(VTumbleweed
p1606
VTumbleweed
p1607
tp1608
a(VSombrero Mexican
p1609
VSombrero-Mexican
p1610
tp1611
a(VPissed off Obama
p1612
VPissed-Off-Obama
p1613
tp1614
a(VGoddamn Batman
p1615
VGoddamn-Batman
p1616
tp1617
a(Vyour country needs you
p1618
VYour-Country-Needs-You
p1619
tp1620
a(VScience Bitch!
p1621
VScience-Bitch
p1622
tp1623
a(VGrumpy cat 5
p1624
VGrumpy-Cat-5
p1625
tp1626
a(VKanye West Taylor Swift
p1627
VKanye-West-Taylor-Swift
p1628
tp1629
a(VAdvice Yoda Gives
p1630
VAdvice-Yoda-Gives
p1631
tp1632
a(VGatsby Gatsby
p1633
VGatsby-Gatsby
p1634
tp1635
a(VSlowpoke
p1636
VSlowpoke
p1637
tp1638
a(VRonald Mcdonald Call
p1639
VRonald-Mcdonald-Call
p1640
tp1641
a(VGiorgio A Tsoukalos Hair
p1642
VGiorgio-A-Tsoukalos-Hair
p1643
tp1644
a(VGrammar Guy
p1645
VGrammar-Guy
p1646
tp1647
a(VImagination
p1648
VImagination
p1649
tp1650
a(VHere's Johnny
p1651
VHereS-Johnny
p1652
tp1653
a(VInternet Husband
p1654
VInternet-Husband
p1655
tp1656
a(VAngry Muslim Guy
p1657
VAngry-Muslim-Guy
p1658
tp1659
a(VAngry Linus
p1660
VAngry-Linus
p1661
tp1662
a(VAlf Stewart
p1663
VAlf-Stewart
p1664
tp1665
a(VSean Bean Game Of Thrones
p1666
VSean-Bean-Game-Of-Thrones
p1667
tp1668
a(VWalter Sobchak with gun
p1669
VWalter-Sobchak-With-Gun
p1670
tp1671
a(VUncle Dolan pls
p1672
VUncle-Dolan-Pls
p1673
tp1674
a(VHulk
p1675
VHulk
p1676
tp1677
a(VCounter Strike
p1678
VCounter-Strike
p1679
tp1680
a(VMatrix Morpheus
p1681
VMatrix-Morpheus
p1682
tp1683
a(VAdvice Hitler
p1684
VAdvice-Hitler
p1685
tp1686
a(Vliam neeson taken
p1687
VLiam-Neeson-Taken
p1688
tp1689
a(VImpossibru Guy
p1690
VImpossibru-Guy
p1691
tp1692
a(VBad Ass Cookie Monster
p1693
VBad-Ass-Cookie-Monster
p1694
tp1695
a(VDr. Evil
p1696
VDr-Evil
p1697
tp1698
a(VLook at All the Fucks I Give
p1699
VLook-At-All-The-Fucks-I-Give
p1700
tp1701
a(Vleonidas
p1702
VLeonidas
p1703
tp1704
a(VI will find you and kill you
p1705
VI-Will-Find-You-And-Kill-You
p1706
tp1707
a(Vpakko ottaa
p1708
VPakko-Ottaa
p1709
tp1710
a(VGrumpy Cat 
p1711
VGrumpy-Cat
p1712
tp1713
a(VJackie Chan
p1714
VJackie-Chan
p1715
tp1716
a(VSuccessful Black Man
p1717
VSuccessful-Black-Man
p1718
tp1719
a(VForever Alone Guy
p1720
VForever-Alone-Guy
p1721
tp1722
a(VWelcome to Whose Line
p1723
VWelcome-To-Whose-Line
p1724
tp1725
a(VCHARLIE AND THE CHOCOLATE FACTORY
p1726
VCharlie-And-The-Chocolate-Factory
p1727
tp1728
a(VSorry I'm not Sorry
p1729
VSorry-IM-Not-Sorry
p1730
tp1731
a(VWhat if I told you / Matrix Morpheus
p1732
VWhat-If-I-Told-You-Matrix-Morpheus
p1733
tp1734
a(Vdr. evil quote
p1735
VDr-Evil-Quote
p1736
tp1737
a(VHodor
p1738
VHodor
p1739
tp1740
a(Vsad stormtrooper
p1741
VSad-Stormtrooper
p1742
tp1743
a(VBeavis and butthead
p1744
VBeavis-And-Butthead
p1745
tp1746
a(Vreally high guy
p1747
VReally-High-Guy
p1748
tp1749
a(VOprah You get a
p1750
VOprah-You-Get-A
p1751
tp1752
a(Vburning house girl
p1753
VBurning-House-Girl
p1754
tp1755
a(Vevil raccoon
p1756
VEvil-Raccoon
p1757
tp1758
a(Vafrican children dancing
p1759
VAfrican-Children-Dancing
p1760
tp1761
a(VX, X Everywhere 
p1762
VX-X-Everywhere
p1763
tp1764
a(VHot Girl
p1765
VHot-Girl
p1766
tp1767
a(VShut Up And Take My Money Fry
p1768
VShut-Up-And-Take-My-Money-Fry
p1769
tp1770
a(Vdr. evil laser
p1771
VDr-Evil-Laser
p1772
tp1773
a(Vcomputer guy
p1774
VComputer-Guy
p1775
tp1776
a(Vxzibit-yo-dawg
p1777
VXzibit-Yo-Dawg
p1778
tp1779
a(VMafia Baby
p1780
VMafia-Baby
p1781
tp1782
a(VNot sure if troll
p1783
VNot-Sure-If-Troll
p1784
tp1785
a(Vspiderman hospital
p1786
VSpiderman-Hospital
p1787
tp1788
a(VKill Yourself Please
p1789
VKill-Yourself-Please
p1790
tp1791
a(VNed Game Of Thrones
p1792
VNed-Game-Of-Thrones
p1793
tp1794
a(VAllen Iverson
p1795
VAllen-Iverson
p1796
tp1797
a(VMoment Of Silence
p1798
VMoment-Of-Silence
p1799
tp1800
a(VSo I got that going on for me, which is nice
p1801
VSo-I-Got-That-Going-On-For-Me-Which-Is-Nice
p1802
tp1803
a(VCraig would be so happy
p1804
VCraig-Would-Be-So-Happy
p1805
tp1806
a(VDangerously Austin Powers
p1807
VDangerously-Austin-Powers
p1808
tp1809
a(VThis Is Sparta Meme
p1810
VThis-Is-Sparta-Meme
p1811
tp1812
a(VHulk SMASH
p1813
VHulk-Smash
p1814
tp1815
a(VWrong Lyrics Christina Aguilera
p1816
VWrong-Lyrics-Christina-Aguilera
p1817
tp1818
a(VRent Is Too Damn High
p1819
VRent-Is-Too-Damn-High
p1820
tp1821
a(VBill Gates
p1822
VBill-Gates
p1823
tp1824
a(VHello Kitty
p1825
VHello-Kitty
p1826
tp1827
a(VY U NO ASH
p1828
VY-U-No-Ash
p1829
tp1830
a(VConsuela
p1831
VConsuela
p1832
tp1833
a(VConspiracy Keanu
p1834
VConspiracy-Keanu
p1835
tp1836
a(VLaughing
p1837
VLaughing
p1838
tp1839
a(Vi should buy a boat cat
p1840
VI-Should-Buy-A-Boat-Cat
p1841
tp1842
a(Vbender blackjack and hookers
p1843
VBender-Blackjack-And-Hookers
p1844
tp1845
a(VConfession Bear
p1846
VConfession-Bear
p1847
tp1848
a(Vdrunk baby 1
p1849
VDrunk-Baby-1
p1850
tp1851
a(VJules Say What Again
p1852
VJules-Say-What-Again
p1853
tp1854
a(VPennywise the Clown
p1855
VPennywise-The-Clown
p1856
tp1857
a(VSound Of Music Lady
p1858
VSound-Of-Music-Lady
p1859
tp1860
a(VTotally looks like....
p1861
VTotally-Looks-Like
p1862
tp1863
a(VAndrzej Andrzej
p1864
VAndrzej-Andrzej
p1865
tp1866
a(VPTSD Karate Kyle
p1867
VPTSD-Karate-Kyle
p1868
tp1869
a(VBuzz and woody
p1870
VBuzz-And-Woody
p1871
tp1872
a(VKevin Hart
p1873
VKevin-Hart
p1874
tp1875
a(VFuck me right
p1876
VFuck-Me-Right
p1877
tp1878
a(Vlook-marge
p1879
VLook-Marge
p1880
tp1881
a(VGordon Ramsay
p1882
VGordon-Ramsay
p1883
tp1884
a(VHappy Cry
p1885
VHappy-Cry
p1886
tp1887
a(VSpongebob - Nobody Cares!
p1888
VSpongebob-Nobody-Cares
p1889
tp1890
a(VChallenge Accepted
p1891
VChallenge-Accepted
p1892
tp1893
a(VQueen Elizabeth Meme
p1894
VQueen-Elizabeth-Meme
p1895
tp1896
a(VBrave Heart Freedom
p1897
VBrave-Heart-Freedom
p1898
tp1899
a(VCourage Wolf
p1900
VCourage-Wolf
p1901
tp1902
a(VSamuel L Jackson
p1903
VSamuel-L-Jackson
p1904
tp1905
a(VMaster Yoda
p1906
VMaster-Yoda
p1907
tp1908
a(VDarth Vader - Nooooooo
p1909
VDarth-Vader-Nooooooo
p1910
tp1911
a(VDat Ass
p1912
VDat-Ass
p1913
tp1914
a(VRambo
p1915
VRambo
p1916
tp1917
a(VFRY FRY
p1918
VFry-Fry
p1919
tp1920
a(VChallenge Accepted 2
p1921
VChallenge-Accepted-2
p1922
tp1923
a(VGod Kills A Kitten
p1924
VGod-Kills-A-Kitten
p1925
tp1926
a(VDoes not simply walk into mordor Boromir 
p1927
VDoes-Not-Simply-Walk-Into-Mordor-Boromir
p1928
tp1929
a(Vmaury povich lol
p1930
VMaury-Povich-Lol
p1931
tp1932
a(VJedi mind trick
p1933
VJedi-Mind-Trick
p1934
tp1935
a(Vleave britney alone
p1936
Vleave-britney-alone
p1937
tp1938
a(Vsuccess baby
p1939
Vsuccess-baby
p1940
tp1941
a(Vhomer simpson mmm
p1942
VHomer-Simpson-Mmm
p1943
tp1944
a(VCondescending Wonka
p1945
VCondescending-Wonka
p1946
tp1947
a(VBlank Meme
p1948
VBlank-Meme
p1949
tp1950
a(Vforrest gump
p1951
VForrest-Gump
p1952
tp1953
a(VIce Cube- Today was a Good day
p1954
VIce-Cube-Today-Was-A-Good-Day
p1955
tp1956
a.